target datalayout = "e-m:e-p270:32:32-p271:32:32-p272:64:64-i64:64-i128:128-f80:128-n8:16:32:64-S128"
target triple = "x86_64-pc-linux-gnu"

%struct.expert_field = type { i32, i32 }
%struct._e_guid_t = type { i32, i16, i16, [8 x i8] }
%struct.dcom_interface_s = type { ptr, ptr, i32, %struct._e_guid_t, %struct._e_guid_t }
%struct.dcom_object_s = type { ptr, ptr, ptr, i32, i64, i64 }
%struct._packet_info = type { ptr, ptr, i32, i32, %struct.nstime_t, %struct.nstime_t, %struct.nstime_t, i8, ptr, ptr, ptr, ptr, %struct._address, %struct._address, %struct._address, %struct._address, %struct._address, %struct._address, i32, ptr, i8, [3 x i8], %struct.anon, i32, i32, i32, i32, ptr, i8, ptr, ptr, i16, i16, i32, i32, i16, i32, i32, ptr, ptr, ptr, i8, i8, i16, i16, i16, i32, i16, i16, ptr, ptr, ptr, ptr, ptr, i32, i32 }
%struct.nstime_t = type { i64, i32 }
%struct._address = type { i32, i32, ptr, ptr }
%struct.anon = type { i8, [3 x i8] }
%struct._dcerpc_info = type { ptr, i32, i64, i8, i8, i8, i32, i32, i32, i32, i32, i32, i32, i32, ptr, ptr, ptr, ptr, %struct.anon.0 }
%struct.anon.0 = type { i8, ptr, ptr, ptr, i8 }
%struct._dcerpc_call_value = type { %struct._e_guid_t, i16, %struct._e_guid_t, i16, i32, %struct.nstime_t, i32, i32, ptr, ptr, ptr, i32 }
%struct._proto_node = type { ptr, ptr, ptr, ptr, ptr, ptr, ptr }
%struct.field_info = type { ptr, i32, i32, i32, i32, i32, i32, ptr, ptr, ptr, i32, i32 }
%struct.server_disconnectme_call_s = type { ptr, ptr }

@ei_cba_acco_ldev_unknown = internal global %struct.expert_field zeroinitializer, align 4
@.str.4 = private unnamed_addr constant [19 x i8] c"Unknown LDev of %s\00", align 1
@ei_cba_acco_ipid_unknown = internal global %struct.expert_field zeroinitializer, align 4
@.str.5 = private unnamed_addr constant [19 x i8] c"Unknown IPID of %s\00", align 1
@hf_cba_acco_srt_call = internal global i32 0, align 4
@hf_cba_acco_conn_consumer = internal global i32 0, align 4
@proto_ICBAAccoMgt = internal global i32 0, align 4
@.str.319 = private unnamed_addr constant [15 x i8] c" Consumer=\22%s\22\00", align 1

; Function Attrs: inlinehint nounwind null_pointer_is_valid sspstrong uwtable
define internal void @proto_item_set_generated(ptr noundef %0) #10 {
  %2 = alloca ptr, align 8
  store ptr %0, ptr %2, align 8
  %3 = load ptr, ptr %2, align 8
  %4 = icmp ne ptr %3, null
  br i1 %4, label %5, label %24

5:                                                ; preds = %1
  br label %6

6:                                                ; preds = %5
  %7 = load ptr, ptr %2, align 8
  %8 = getelementptr inbounds nuw %struct._proto_node, ptr %7, i32 0, i32 5
  %9 = load ptr, ptr %8, align 8
  %10 = icmp ne ptr %9, null
  br i1 %10, label %11, label %22

11:                                               ; preds = %6
  %12 = load ptr, ptr %2, align 8
  %13 = getelementptr inbounds nuw %struct._proto_node, ptr %12, i32 0, i32 5
  %14 = load ptr, ptr %13, align 8
  %15 = getelementptr inbounds nuw %struct.field_info, ptr %14, i32 0, i32 6
  %16 = load i32, ptr %15, align 4
  %17 = or i32 %16, 2
  %18 = load ptr, ptr %2, align 8
  %19 = getelementptr inbounds nuw %struct._proto_node, ptr %18, i32 0, i32 5
  %20 = load ptr, ptr %19, align 8
  %21 = getelementptr inbounds nuw %struct.field_info, ptr %20, i32 0, i32 6
  store i32 %17, ptr %21, align 4
  br label %22

22:                                               ; preds = %11, %6
  br label %23

23:                                               ; preds = %22
  br label %24

24:                                               ; preds = %23, %1
  ret void
}

; Function Attrs: null_pointer_is_valid sspstrong uwtable
define hidden ptr @cba_ldev_find(ptr noundef %0, ptr noundef %1, ptr noundef %2) #0 {
  %4 = alloca ptr, align 8
  %5 = alloca ptr, align 8
  %6 = alloca ptr, align 8
  %7 = alloca ptr, align 8
  %8 = alloca ptr, align 8
  store ptr %0, ptr %4, align 8
  store ptr %1, ptr %5, align 8
  store ptr %2, ptr %6, align 8
  call void @llvm.lifetime.start.p0(i64 8, ptr %7) #12
  call void @llvm.lifetime.start.p0(i64 8, ptr %8) #12
  %9 = load ptr, ptr %4, align 8
  %10 = load ptr, ptr %5, align 8
  %11 = load ptr, ptr %6, align 8
  %12 = call ptr @dcom_interface_find(ptr noundef %9, ptr noundef %10, ptr noundef %11)
  store ptr %12, ptr %7, align 8
  %13 = load ptr, ptr %7, align 8
  %14 = icmp ne ptr %13, null
  br i1 %14, label %15, label %39

15:                                               ; preds = %3
  %16 = load ptr, ptr %7, align 8
  %17 = getelementptr inbounds nuw %struct.dcom_interface_s, ptr %16, i32 0, i32 1
  %18 = load ptr, ptr %17, align 8
  store ptr %18, ptr %8, align 8
  %19 = load ptr, ptr %8, align 8
  %20 = icmp eq ptr %19, null
  br i1 %20, label %21, label %27

21:                                               ; preds = %15
  %22 = load ptr, ptr %7, align 8
  %23 = getelementptr inbounds nuw %struct.dcom_interface_s, ptr %22, i32 0, i32 0
  %24 = load ptr, ptr %23, align 8
  %25 = getelementptr inbounds nuw %struct.dcom_object_s, ptr %24, i32 0, i32 2
  %26 = load ptr, ptr %25, align 8
  store ptr %26, ptr %8, align 8
  br label %27

27:                                               ; preds = %21, %15
  %28 = load ptr, ptr %8, align 8
  %29 = icmp eq ptr %28, null
  br i1 %29, label %30, label %38

30:                                               ; preds = %27
  %31 = load ptr, ptr %4, align 8
  %32 = load ptr, ptr %4, align 8
  %33 = getelementptr inbounds nuw %struct._packet_info, ptr %32, i32 0, i32 51
  %34 = load ptr, ptr %33, align 8
  %35 = load ptr, ptr %5, align 8
  %36 = call ptr @address_to_str(ptr noundef %34, ptr noundef %35)
  %37 = call ptr (ptr, ptr, ptr, ptr, ...) @expert_add_info_format(ptr noundef %31, ptr noundef null, ptr noundef @ei_cba_acco_ldev_unknown, ptr noundef @.str.4, ptr noundef %36)
  br label %38

38:                                               ; preds = %30, %27
  br label %47

39:                                               ; preds = %3
  %40 = load ptr, ptr %4, align 8
  %41 = load ptr, ptr %4, align 8
  %42 = getelementptr inbounds nuw %struct._packet_info, ptr %41, i32 0, i32 51
  %43 = load ptr, ptr %42, align 8
  %44 = load ptr, ptr %5, align 8
  %45 = call ptr @address_to_str(ptr noundef %43, ptr noundef %44)
  %46 = call ptr (ptr, ptr, ptr, ptr, ...) @expert_add_info_format(ptr noundef %40, ptr noundef null, ptr noundef @ei_cba_acco_ipid_unknown, ptr noundef @.str.5, ptr noundef %45)
  store ptr null, ptr %8, align 8
  br label %47

47:                                               ; preds = %39, %38
  %48 = load ptr, ptr %8, align 8
  call void @llvm.lifetime.end.p0(i64 8, ptr %8) #12
  call void @llvm.lifetime.end.p0(i64 8, ptr %7) #12
  ret ptr %48
}

; Function Attrs: null_pointer_is_valid sspstrong uwtable
define internal i32 @dissect_ICBAAccoServerSRT_DisconnectMe_rqst(ptr noundef %0, i32 noundef %1, ptr noundef %2, ptr noundef %3, ptr noundef %4, ptr noundef %5) #0 {
  %7 = alloca ptr, align 8
  %8 = alloca i32, align 4
  %9 = alloca ptr, align 8
  %10 = alloca ptr, align 8
  %11 = alloca ptr, align 8
  %12 = alloca ptr, align 8
  %13 = alloca [1000 x i8], align 16
  %14 = alloca i32, align 4
  %15 = alloca ptr, align 8
  %16 = alloca ptr, align 8
  %17 = alloca ptr, align 8
  %18 = alloca ptr, align 8
  store ptr %0, ptr %7, align 8
  store i32 %1, ptr %8, align 4
  store ptr %2, ptr %9, align 8
  store ptr %3, ptr %10, align 8
  store ptr %4, ptr %11, align 8
  store ptr %5, ptr %12, align 8
  call void @llvm.lifetime.start.p0(i64 1000, ptr %13) #12
  call void @llvm.lifetime.start.p0(i64 4, ptr %14) #12
  store i32 1000, ptr %14, align 4
  call void @llvm.lifetime.start.p0(i64 8, ptr %15) #12
  call void @llvm.lifetime.start.p0(i64 8, ptr %16) #12
  call void @llvm.lifetime.start.p0(i64 8, ptr %17) #12
  call void @llvm.lifetime.start.p0(i64 8, ptr %18) #12
  %19 = load ptr, ptr %7, align 8
  %20 = load i32, ptr %8, align 4
  %21 = load ptr, ptr %9, align 8
  %22 = load ptr, ptr %10, align 8
  %23 = load ptr, ptr %11, align 8
  %24 = load ptr, ptr %12, align 8
  %25 = call i32 @dissect_dcom_this(ptr noundef %19, i32 noundef %20, ptr noundef %21, ptr noundef %22, ptr noundef %23, ptr noundef %24)
  store i32 %25, ptr %8, align 4
  %26 = load ptr, ptr %9, align 8
  %27 = load ptr, ptr %9, align 8
  %28 = getelementptr inbounds nuw %struct._packet_info, ptr %27, i32 0, i32 15
  %29 = load ptr, ptr %11, align 8
  %30 = getelementptr inbounds nuw %struct._dcerpc_info, ptr %29, i32 0, i32 14
  %31 = load ptr, ptr %30, align 8
  %32 = getelementptr inbounds nuw %struct._dcerpc_call_value, ptr %31, i32 0, i32 2
  %33 = call ptr @cba_ldev_find(ptr noundef %26, ptr noundef %28, ptr noundef %32)
  store ptr %33, ptr %16, align 8
  %34 = load ptr, ptr %10, align 8
  %35 = load i32, ptr @hf_cba_acco_srt_call, align 4
  %36 = load ptr, ptr %7, align 8
  %37 = load i32, ptr %8, align 4
  %38 = call ptr @proto_tree_add_boolean(ptr noundef %34, i32 noundef %35, ptr noundef %36, i32 noundef %37, i32 noundef 0, i64 noundef 1)
  store ptr %38, ptr %15, align 8
  %39 = load ptr, ptr %15, align 8
  call void @proto_item_set_generated(ptr noundef %39)
  %40 = load ptr, ptr %9, align 8
  %41 = getelementptr inbounds nuw %struct._packet_info, ptr %40, i32 0, i32 51
  %42 = load ptr, ptr %41, align 8
  %43 = load ptr, ptr %9, align 8
  %44 = load i32, ptr @proto_ICBAAccoMgt, align 4
  call void @p_add_proto_data(ptr noundef %42, ptr noundef %43, i32 noundef %44, i32 noundef 0, ptr noundef inttoptr (i64 4 to ptr))
  %45 = load ptr, ptr %7, align 8
  %46 = load i32, ptr %8, align 4
  %47 = load ptr, ptr %9, align 8
  %48 = load ptr, ptr %10, align 8
  %49 = load ptr, ptr %11, align 8
  %50 = load ptr, ptr %12, align 8
  %51 = load i32, ptr @hf_cba_acco_conn_consumer, align 4
  %52 = getelementptr inbounds [1000 x i8], ptr %13, i64 0, i64 0
  %53 = load i32, ptr %14, align 4
  %54 = call i32 @dissect_dcom_LPWSTR(ptr noundef %45, i32 noundef %46, ptr noundef %47, ptr noundef %48, ptr noundef %49, ptr noundef %50, i32 noundef %51, ptr noundef %52, i32 noundef %53)
  store i32 %54, ptr %8, align 4
  %55 = load ptr, ptr %9, align 8
  %56 = getelementptr inbounds [1000 x i8], ptr %13, i64 0, i64 0
  %57 = call ptr @cba_acco_add(ptr noundef %55, ptr noundef %56)
  store ptr %57, ptr %17, align 8
  %58 = load ptr, ptr %16, align 8
  %59 = icmp ne ptr %58, null
  br i1 %59, label %60, label %77

60:                                               ; preds = %6
  %61 = load ptr, ptr %17, align 8
  %62 = icmp ne ptr %61, null
  br i1 %62, label %63, label %77

63:                                               ; preds = %60
  %64 = call ptr @wmem_file_scope()
  %65 = call noalias ptr @wmem_alloc(ptr noundef %64, i64 noundef 16) #14
  store ptr %65, ptr %18, align 8
  %66 = load ptr, ptr %17, align 8
  %67 = load ptr, ptr %18, align 8
  %68 = getelementptr inbounds nuw %struct.server_disconnectme_call_s, ptr %67, i32 0, i32 0
  store ptr %66, ptr %68, align 8
  %69 = load ptr, ptr %16, align 8
  %70 = load ptr, ptr %18, align 8
  %71 = getelementptr inbounds nuw %struct.server_disconnectme_call_s, ptr %70, i32 0, i32 1
  store ptr %69, ptr %71, align 8
  %72 = load ptr, ptr %18, align 8
  %73 = load ptr, ptr %11, align 8
  %74 = getelementptr inbounds nuw %struct._dcerpc_info, ptr %73, i32 0, i32 14
  %75 = load ptr, ptr %74, align 8
  %76 = getelementptr inbounds nuw %struct._dcerpc_call_value, ptr %75, i32 0, i32 9
  store ptr %72, ptr %76, align 8
  br label %77

77:                                               ; preds = %63, %60, %6
  %78 = load ptr, ptr %9, align 8
  %79 = getelementptr inbounds nuw %struct._packet_info, ptr %78, i32 0, i32 1
  %80 = load ptr, ptr %79, align 8
  %81 = getelementptr inbounds [1000 x i8], ptr %13, i64 0, i64 0
  call void (ptr, i32, ptr, ...) @col_append_fstr(ptr noundef %80, i32 noundef 25, ptr noundef @.str.319, ptr noundef %81)
  %82 = load i32, ptr %8, align 4
  call void @llvm.lifetime.end.p0(i64 8, ptr %18) #12
  call void @llvm.lifetime.end.p0(i64 8, ptr %17) #12
  call void @llvm.lifetime.end.p0(i64 8, ptr %16) #12
  call void @llvm.lifetime.end.p0(i64 8, ptr %15) #12
  call void @llvm.lifetime.end.p0(i64 4, ptr %14) #12
  call void @llvm.lifetime.end.p0(i64 1000, ptr %13) #12
  ret i32 %82
}